; Function Attrs: mustprogress uwtable
define internal noundef double @"_ZNSt17_Function_handlerIFddEZN8QuantLib14LsmBasisSystem15pathBasisSystemEmNS2_14PolynomialTypeEE3$_4E9_M_invokeERKSt9_Any_dataOd"(ptr nocapture noundef nonnull readonly align 8 dereferenceable(16) %__functor, ptr nocapture noundef nonnull readonly align 8 dereferenceable(8) %__args) #0 align 2 {
entry:
  %__functor.val = load ptr, ptr %__functor, align 8, !tbaa !13
  %__args.val = load double, ptr %__args, align 8, !tbaa !98
  %0 = getelementptr inbounds nuw i8, ptr %__functor.val, i64 24
  %1 = load i64, ptr %0, align 8, !tbaa !35
  %call.i.i.i = tail call noundef double @_ZNK8QuantLib28GaussianOrthogonalPolynomial13weightedValueEmd(ptr noundef nonnull align 8 dereferenceable(8) %__functor.val, i64 noundef %1, double noundef %__args.val)
  ret double %call.i.i.i
}